; Function Attrs: nounwind uwtable
define zeroext range(i8 0, 4) i8 @l_Lean_Elab_WF_GuessLex_GuessLexRel_ofNat(ptr noundef %0) local_unnamed_addr #1 {
  %2 = ptrtoint ptr %0 to i64
  %3 = and i64 %2, 1
  %.not = icmp eq i64 %3, 0
  br i1 %.not, label %lean_nat_le.exit, label %4, !prof !15

4:                                                ; preds = %1
  %.not22 = icmp ult ptr %0, inttoptr (i64 5 to ptr)
  br i1 %.not22, label %6, label %10

lean_nat_le.exit:                                 ; preds = %1
  %5 = tail call zeroext i1 @lean_nat_big_le(ptr noundef nonnull inttoptr (i64 5 to ptr), ptr noundef %0) #8
  br i1 %5, label %.critedge.i16, label %.critedge.i14

6:                                                ; preds = %4
  %7 = icmp eq ptr %0, inttoptr (i64 1 to ptr)
  br label %lean_nat_eq.exit

.critedge.i14:                                    ; preds = %lean_nat_le.exit
  %8 = tail call zeroext i1 @lean_nat_big_eq(ptr noundef %0, ptr noundef nonnull inttoptr (i64 1 to ptr)) #8
  br label %lean_nat_eq.exit

lean_nat_eq.exit:                                 ; preds = %6, %.critedge.i14
  %.0.i15 = phi i1 [ %7, %6 ], [ %8, %.critedge.i14 ]
  %9 = xor i1 %.0.i15, true
  %. = zext i1 %9 to i8
  br label %13

10:                                               ; preds = %4
  %11 = icmp eq ptr %0, inttoptr (i64 5 to ptr)
  br label %lean_nat_eq.exit18

.critedge.i16:                                    ; preds = %lean_nat_le.exit
  %12 = tail call zeroext i1 @lean_nat_big_eq(ptr noundef %0, ptr noundef nonnull inttoptr (i64 5 to ptr)) #8
  br label %lean_nat_eq.exit18

lean_nat_eq.exit18:                               ; preds = %10, %.critedge.i16
  %.0.i17 = phi i1 [ %11, %10 ], [ %12, %.critedge.i16 ]
  %.13 = select i1 %.0.i17, i8 2, i8 3
  br label %13

13:                                               ; preds = %lean_nat_eq.exit18, %lean_nat_eq.exit
  %.1 = phi i8 [ %., %lean_nat_eq.exit ], [ %.13, %lean_nat_eq.exit18 ]
  ret i8 %.1
}